; ModuleID = '31/375.c'
source_filename = "31/375.c"
target datalayout = "e-m:e-p270:32:32-p271:32:32-p272:64:64-i64:64-f80:128-n8:16:32:64-S128"
target triple = "x86_64-pc-linux-gnu"

%struct.student = type { [100 x i8], [100 x i8], i8, i32, [20 x i8], [100 x i8], %struct.student*, %struct.student* }

@.str = private unnamed_addr constant [3 x i8] c"%s\00", align 1
@.str.1 = private unnamed_addr constant [12 x i8] c"%s %c%d%s%s\00", align 1
@.str.2 = private unnamed_addr constant [19 x i8] c"%s %s %c %d %s %s\0A\00", align 1

; Function Attrs: noinline nounwind uwtable
define dso_local void @main() #0 {
  %1 = alloca %struct.student*, align 8
  %2 = alloca %struct.student*, align 8
  %3 = alloca i32, align 4
  store i32 0, i32* %3, align 4
  %4 = call noalias i8* @malloc(i64 100) #3
  %5 = bitcast i8* %4 to %struct.student*
  store %struct.student* %5, %struct.student** %2, align 8
  store %struct.student* %5, %struct.student** %1, align 8
  %6 = load %struct.student*, %struct.student** %1, align 8
  %7 = getelementptr inbounds %struct.student, %struct.student* %6, i32 0, i32 7
  store %struct.student* null, %struct.student** %7, align 8
  %8 = load %struct.student*, %struct.student** %1, align 8
  %9 = getelementptr inbounds %struct.student, %struct.student* %8, i32 0, i32 0
  %10 = call i32 (i8*, ...) @__isoc99_scanf(i8* getelementptr inbounds ([3 x i8], [3 x i8]* @.str, i64 0, i64 0), [100 x i8]* %9)
  br label %11

11:                                               ; preds = %34, %0
  %12 = load %struct.student*, %struct.student** %1, align 8
  %13 = getelementptr inbounds %struct.student, %struct.student* %12, i32 0, i32 0
  %14 = getelementptr inbounds [100 x i8], [100 x i8]* %13, i64 0, i64 0
  %15 = load i8, i8* %14, align 8
  %16 = sext i8 %15 to i32
  %17 = icmp ne i32 %16, 101
  br i1 %17, label %32, label %18

18:                                               ; preds = %11
  %19 = load %struct.student*, %struct.student** %1, align 8
  %20 = getelementptr inbounds %struct.student, %struct.student* %19, i32 0, i32 0
  %21 = getelementptr inbounds [100 x i8], [100 x i8]* %20, i64 0, i64 1
  %22 = load i8, i8* %21, align 1
  %23 = sext i8 %22 to i32
  %24 = icmp ne i32 %23, 110
  br i1 %24, label %32, label %25

25:                                               ; preds = %18
  %26 = load %struct.student*, %struct.student** %1, align 8
  %27 = getelementptr inbounds %struct.student, %struct.student* %26, i32 0, i32 0
  %28 = getelementptr inbounds [100 x i8], [100 x i8]* %27, i64 0, i64 2
  %29 = load i8, i8* %28, align 2
  %30 = sext i8 %29 to i32
  %31 = icmp ne i32 %30, 100
  br label %32

32:                                               ; preds = %25, %18, %11
  %33 = phi i1 [ true, %18 ], [ true, %11 ], [ %31, %25 ]
  br i1 %33, label %34, label %60

34:                                               ; preds = %32
  %35 = load %struct.student*, %struct.student** %1, align 8
  %36 = getelementptr inbounds %struct.student, %struct.student* %35, i32 0, i32 1
  %37 = load %struct.student*, %struct.student** %1, align 8
  %38 = getelementptr inbounds %struct.student, %struct.student* %37, i32 0, i32 2
  %39 = load %struct.student*, %struct.student** %1, align 8
  %40 = getelementptr inbounds %struct.student, %struct.student* %39, i32 0, i32 3
  %41 = load %struct.student*, %struct.student** %1, align 8
  %42 = getelementptr inbounds %struct.student, %struct.student* %41, i32 0, i32 4
  %43 = load %struct.student*, %struct.student** %1, align 8
  %44 = getelementptr inbounds %struct.student, %struct.student* %43, i32 0, i32 5
  %45 = call i32 (i8*, ...) @__isoc99_scanf(i8* getelementptr inbounds ([12 x i8], [12 x i8]* @.str.1, i64 0, i64 0), [100 x i8]* %36, i8* %38, i32* %40, [20 x i8]* %42, [100 x i8]* %44)
  %46 = load i32, i32* %3, align 4
  %47 = add nsw i32 %46, 1
  store i32 %47, i32* %3, align 4
  %48 = load %struct.student*, %struct.student** %1, align 8
  %49 = load %struct.student*, %struct.student** %2, align 8
  %50 = getelementptr inbounds %struct.student, %struct.student* %49, i32 0, i32 6
  store %struct.student* %48, %struct.student** %50, align 8
  %51 = load %struct.student*, %struct.student** %1, align 8
  store %struct.student* %51, %struct.student** %2, align 8
  %52 = call noalias i8* @malloc(i64 100) #3
  %53 = bitcast i8* %52 to %struct.student*
  store %struct.student* %53, %struct.student** %1, align 8
  %54 = load %struct.student*, %struct.student** %2, align 8
  %55 = load %struct.student*, %struct.student** %1, align 8
  %56 = getelementptr inbounds %struct.student, %struct.student* %55, i32 0, i32 7
  store %struct.student* %54, %struct.student** %56, align 8
  %57 = load %struct.student*, %struct.student** %1, align 8
  %58 = getelementptr inbounds %struct.student, %struct.student* %57, i32 0, i32 0
  %59 = call i32 (i8*, ...) @__isoc99_scanf(i8* getelementptr inbounds ([3 x i8], [3 x i8]* @.str, i64 0, i64 0), [100 x i8]* %58)
  br label %11

60:                                               ; preds = %32
  %61 = load %struct.student*, %struct.student** %2, align 8
  %62 = getelementptr inbounds %struct.student, %struct.student* %61, i32 0, i32 6
  store %struct.student* null, %struct.student** %62, align 8
  br label %63

63:                                               ; preds = %66, %60
  %64 = load %struct.student*, %struct.student** %2, align 8
  %65 = icmp ne %struct.student* %64, null
  br i1 %65, label %66, label %90

66:                                               ; preds = %63
  %67 = load %struct.student*, %struct.student** %2, align 8
  %68 = getelementptr inbounds %struct.student, %struct.student* %67, i32 0, i32 0
  %69 = getelementptr inbounds [100 x i8], [100 x i8]* %68, i64 0, i64 0
  %70 = load %struct.student*, %struct.student** %2, align 8
  %71 = getelementptr inbounds %struct.student, %struct.student* %70, i32 0, i32 1
  %72 = getelementptr inbounds [100 x i8], [100 x i8]* %71, i64 0, i64 0
  %73 = load %struct.student*, %struct.student** %2, align 8
  %74 = getelementptr inbounds %struct.student, %struct.student* %73, i32 0, i32 2
  %75 = load i8, i8* %74, align 8
  %76 = sext i8 %75 to i32
  %77 = load %struct.student*, %struct.student** %2, align 8
  %78 = getelementptr inbounds %struct.student, %struct.student* %77, i32 0, i32 3
  %79 = load i32, i32* %78, align 4
  %80 = load %struct.student*, %struct.student** %2, align 8
  %81 = getelementptr inbounds %struct.student, %struct.student* %80, i32 0, i32 4
  %82 = getelementptr inbounds [20 x i8], [20 x i8]* %81, i64 0, i64 0
  %83 = load %struct.student*, %struct.student** %2, align 8
  %84 = getelementptr inbounds %struct.student, %struct.student* %83, i32 0, i32 5
  %85 = getelementptr inbounds [100 x i8], [100 x i8]* %84, i64 0, i64 0
  %86 = call i32 (i8*, ...) @printf(i8* getelementptr inbounds ([19 x i8], [19 x i8]* @.str.2, i64 0, i64 0), i8* %69, i8* %72, i32 %76, i32 %79, i8* %82, i8* %85)
  %87 = load %struct.student*, %struct.student** %2, align 8
  %88 = getelementptr inbounds %struct.student, %struct.student* %87, i32 0, i32 7
  %89 = load %struct.student*, %struct.student** %88, align 8
  store %struct.student* %89, %struct.student** %2, align 8
  br label %63

90:                                               ; preds = %63
  ret void
}

; Function Attrs: nounwind
declare dso_local noalias i8* @malloc(i64) #1

declare dso_local i32 @__isoc99_scanf(i8*, ...) #2

declare dso_local i32 @printf(i8*, ...) #2


!llvm.module.flags = !{!0}
!llvm.ident = !{!1}

!0 = !{i32 1, !"wchar_size", i32 4}
!1 = !{!"clang version 10.0.0-4ubuntu1 "}
